target datalayout = "e-m:e-p270:32:32-p271:32:32-p272:64:64-i64:64-i128:128-f80:128-n8:16:32:64-S128"
target triple = "x86_64-pc-linux-gnu"

%"class.rocksdb::Slice" = type { ptr, i64 }
%"class.rocksdb::LookupKey" = type { ptr, ptr, ptr, [200 x i8] }

; Function Attrs: mustprogress nounwind uwtable
define linkonce_odr void @_ZN7rocksdb5SliceC2EPKcm(ptr noundef nonnull align 8 dereferenceable(16) %0, ptr noundef %1, i64 noundef %2) unnamed_addr #5 comdat align 2 {
  %4 = alloca ptr, align 8
  %5 = alloca ptr, align 8
  %6 = alloca i64, align 8
  store ptr %0, ptr %4, align 8, !tbaa !13
  store ptr %1, ptr %5, align 8, !tbaa !28
  store i64 %2, ptr %6, align 8, !tbaa !4
  %7 = load ptr, ptr %4, align 8
  %8 = getelementptr inbounds nuw %"class.rocksdb::Slice", ptr %7, i32 0, i32 0
  %9 = load ptr, ptr %5, align 8, !tbaa !28
  store ptr %9, ptr %8, align 8, !tbaa !30
  %10 = getelementptr inbounds nuw %"class.rocksdb::Slice", ptr %7, i32 0, i32 1
  %11 = load i64, ptr %6, align 8, !tbaa !4
  store i64 %11, ptr %10, align 8, !tbaa !32
  ret void
}

; Function Attrs: mustprogress nounwind uwtable
define linkonce_odr noundef ptr @_ZNK7rocksdb5Slice4dataEv(ptr noundef nonnull align 8 dereferenceable(16) %0) #5 comdat align 2 {
  %2 = alloca ptr, align 8
  store ptr %0, ptr %2, align 8, !tbaa !13
  %3 = load ptr, ptr %2, align 8
  %4 = getelementptr inbounds nuw %"class.rocksdb::Slice", ptr %3, i32 0, i32 0
  %5 = load ptr, ptr %4, align 8, !tbaa !30
  ret ptr %5
}

; Function Attrs: mustprogress uwtable
define linkonce_odr { ptr, i64 } @_ZNK7rocksdb9LookupKey12memtable_keyEv(ptr noundef nonnull align 8 dereferenceable(224) %0) #4 comdat align 2 {
  %2 = alloca %"class.rocksdb::Slice", align 8
  %3 = alloca ptr, align 8
  store ptr %0, ptr %3, align 8, !tbaa !615
  %4 = load ptr, ptr %3, align 8
  %5 = getelementptr inbounds nuw %"class.rocksdb::LookupKey", ptr %4, i32 0, i32 0
  %6 = load ptr, ptr %5, align 8, !tbaa !769
  %7 = getelementptr inbounds nuw %"class.rocksdb::LookupKey", ptr %4, i32 0, i32 2
  %8 = load ptr, ptr %7, align 8, !tbaa !642
  %9 = getelementptr inbounds nuw %"class.rocksdb::LookupKey", ptr %4, i32 0, i32 0
  %10 = load ptr, ptr %9, align 8, !tbaa !769
  %11 = ptrtoint ptr %8 to i64
  %12 = ptrtoint ptr %10 to i64
  %13 = sub i64 %11, %12
  call void @_ZN7rocksdb5SliceC2EPKcm(ptr noundef nonnull align 8 dereferenceable(16) %2, ptr noundef %6, i64 noundef %13)
  %14 = load { ptr, i64 }, ptr %2, align 8
  ret { ptr, i64 } %14
}

; Function Attrs: mustprogress uwtable
define linkonce_odr { ptr, i64 } @_ZNK7rocksdb9LookupKey12internal_keyEv(ptr noundef nonnull align 8 dereferenceable(224) %0) #4 comdat align 2 {
  %2 = alloca %"class.rocksdb::Slice", align 8
  %3 = alloca ptr, align 8
  store ptr %0, ptr %3, align 8, !tbaa !615
  %4 = load ptr, ptr %3, align 8
  %5 = getelementptr inbounds nuw %"class.rocksdb::LookupKey", ptr %4, i32 0, i32 1
  %6 = load ptr, ptr %5, align 8, !tbaa !640
  %7 = getelementptr inbounds nuw %"class.rocksdb::LookupKey", ptr %4, i32 0, i32 2
  %8 = load ptr, ptr %7, align 8, !tbaa !642
  %9 = getelementptr inbounds nuw %"class.rocksdb::LookupKey", ptr %4, i32 0, i32 1
  %10 = load ptr, ptr %9, align 8, !tbaa !640
  %11 = ptrtoint ptr %8 to i64
  %12 = ptrtoint ptr %10 to i64
  %13 = sub i64 %11, %12
  call void @_ZN7rocksdb5SliceC2EPKcm(ptr noundef nonnull align 8 dereferenceable(16) %2, ptr noundef %6, i64 noundef %13)
  %14 = load { ptr, i64 }, ptr %2, align 8
  ret { ptr, i64 } %14
}

; Function Attrs: mustprogress uwtable
define void @_ZN7rocksdb11MemTableRep3GetERKNS_9LookupKeyEPvPFbS4_PKcE(ptr noundef nonnull align 8 dereferenceable(16) %0, ptr noundef nonnull align 8 dereferenceable(224) %1, ptr noundef %2, ptr noundef %3) unnamed_addr #4 align 2 {
  %5 = alloca ptr, align 8
  %6 = alloca ptr, align 8
  %7 = alloca ptr, align 8
  %8 = alloca ptr, align 8
  %9 = alloca ptr, align 8
  %10 = alloca %"class.rocksdb::Slice", align 8
  %11 = alloca %"class.rocksdb::Slice", align 8
  store ptr %0, ptr %5, align 8, !tbaa !384
  store ptr %1, ptr %6, align 8, !tbaa !615
  store ptr %2, ptr %7, align 8, !tbaa !51
  store ptr %3, ptr %8, align 8, !tbaa !51
  %12 = load ptr, ptr %5, align 8
  call void @llvm.lifetime.start.p0(i64 8, ptr %9) #6
  %13 = load ptr, ptr %12, align 8, !tbaa !26
  %14 = getelementptr inbounds ptr, ptr %13, i64 20
  %15 = load ptr, ptr %14, align 8
  %16 = call noundef ptr %15(ptr noundef nonnull align 8 dereferenceable(16) %12, ptr noundef null)
  store ptr %16, ptr %9, align 8, !tbaa !772
  %17 = load ptr, ptr %9, align 8, !tbaa !772
  call void @llvm.lifetime.start.p0(i64 16, ptr %10) #6
  %18 = load ptr, ptr %6, align 8, !tbaa !615
  %19 = call { ptr, i64 } @_ZNK7rocksdb9LookupKey12internal_keyEv(ptr noundef nonnull align 8 dereferenceable(224) %18)
  %20 = getelementptr inbounds nuw { ptr, i64 }, ptr %10, i32 0, i32 0
  %21 = extractvalue { ptr, i64 } %19, 0
  store ptr %21, ptr %20, align 8
  %22 = getelementptr inbounds nuw { ptr, i64 }, ptr %10, i32 0, i32 1
  %23 = extractvalue { ptr, i64 } %19, 1
  store i64 %23, ptr %22, align 8
  call void @llvm.lifetime.start.p0(i64 16, ptr %11) #6
  %24 = load ptr, ptr %6, align 8, !tbaa !615
  %25 = call { ptr, i64 } @_ZNK7rocksdb9LookupKey12memtable_keyEv(ptr noundef nonnull align 8 dereferenceable(224) %24)
  %26 = getelementptr inbounds nuw { ptr, i64 }, ptr %11, i32 0, i32 0
  %27 = extractvalue { ptr, i64 } %25, 0
  store ptr %27, ptr %26, align 8
  %28 = getelementptr inbounds nuw { ptr, i64 }, ptr %11, i32 0, i32 1
  %29 = extractvalue { ptr, i64 } %25, 1
  store i64 %29, ptr %28, align 8
  %30 = call noundef ptr @_ZNK7rocksdb5Slice4dataEv(ptr noundef nonnull align 8 dereferenceable(16) %11)
  %31 = load ptr, ptr %17, align 8, !tbaa !26
  %32 = getelementptr inbounds ptr, ptr %31, i64 8
  %33 = load ptr, ptr %32, align 8
  call void %33(ptr noundef nonnull align 8 dereferenceable(8) %17, ptr noundef nonnull align 8 dereferenceable(16) %10, ptr noundef %30)
  call void @llvm.lifetime.end.p0(i64 16, ptr %11) #6
  call void @llvm.lifetime.end.p0(i64 16, ptr %10) #6
  br label %34

34:                                               ; preds = %52, %4
  %35 = load ptr, ptr %9, align 8, !tbaa !772
  %36 = load ptr, ptr %35, align 8, !tbaa !26
  %37 = getelementptr inbounds ptr, ptr %36, i64 2
  %38 = load ptr, ptr %37, align 8
  %39 = call noundef zeroext i1 %38(ptr noundef nonnull align 8 dereferenceable(8) %35)
  br i1 %39, label %40, label %49

40:                                               ; preds = %34
  %41 = load ptr, ptr %8, align 8, !tbaa !51
  %42 = load ptr, ptr %7, align 8, !tbaa !51
  %43 = load ptr, ptr %9, align 8, !tbaa !772
  %44 = load ptr, ptr %43, align 8, !tbaa !26
  %45 = getelementptr inbounds ptr, ptr %44, i64 3
  %46 = load ptr, ptr %45, align 8
  %47 = call noundef ptr %46(ptr noundef nonnull align 8 dereferenceable(8) %43)
  %48 = call noundef zeroext i1 %41(ptr noundef %42, ptr noundef %47)
  br label %49

49:                                               ; preds = %40, %34
  %50 = phi i1 [ false, %34 ], [ %48, %40 ]
  br i1 %50, label %51, label %57

51:                                               ; preds = %49
  br label %52

52:                                               ; preds = %51
  %53 = load ptr, ptr %9, align 8, !tbaa !772
  %54 = load ptr, ptr %53, align 8, !tbaa !26
  %55 = getelementptr inbounds ptr, ptr %54, i64 4
  %56 = load ptr, ptr %55, align 8
  call void %56(ptr noundef nonnull align 8 dereferenceable(8) %53)
  br label %34, !llvm.loop !783

57:                                               ; preds = %49
  call void @llvm.lifetime.end.p0(i64 8, ptr %9) #6
  ret void
}