; Function Attrs: mustprogress uwtable
define void @_ZN7rocksdb11MemTableRep3GetERKNS_9LookupKeyEPvPFbS4_PKcE(ptr noundef nonnull align 8 dereferenceable(16) %0, ptr noundef nonnull readonly align 8 captures(none) dereferenceable(224) %1, ptr noundef %2, ptr noundef readonly captures(none) %3) unnamed_addr #4 align 2 {
  %5 = alloca %"class.rocksdb::Slice", align 8
  %6 = load ptr, ptr %0, align 8, !tbaa !19
  %7 = getelementptr inbounds nuw i8, ptr %6, i64 160
  %8 = load ptr, ptr %7, align 8
  %9 = tail call noundef ptr %8(ptr noundef nonnull align 8 dereferenceable(16) %0, ptr noundef null)
  call void @llvm.lifetime.start.p0(i64 16, ptr nonnull %5) #35
  %10 = getelementptr inbounds nuw i8, ptr %1, i64 8
  %11 = load ptr, ptr %10, align 8, !tbaa !583
  %12 = getelementptr inbounds nuw i8, ptr %1, i64 16
  %13 = load ptr, ptr %12, align 8, !tbaa !585
  %14 = ptrtoint ptr %13 to i64
  %15 = ptrtoint ptr %11 to i64
  %16 = sub i64 %14, %15
  store ptr %11, ptr %5, align 8
  %17 = getelementptr inbounds nuw i8, ptr %5, i64 8
  store i64 %16, ptr %17, align 8
  %18 = load ptr, ptr %1, align 8, !tbaa !725
  %19 = load ptr, ptr %9, align 8, !tbaa !19
  %20 = getelementptr inbounds nuw i8, ptr %19, i64 64
  %21 = load ptr, ptr %20, align 8
  call void %21(ptr noundef nonnull align 8 dereferenceable(8) %9, ptr noundef nonnull align 8 dereferenceable(16) %5, ptr noundef %18)
  call void @llvm.lifetime.end.p0(i64 16, ptr nonnull %5) #35
  %22 = load ptr, ptr %9, align 8, !tbaa !19
  %23 = getelementptr inbounds nuw i8, ptr %22, i64 16
  %24 = load ptr, ptr %23, align 8
  %25 = call noundef zeroext i1 %24(ptr noundef nonnull align 8 dereferenceable(8) %9)
  br i1 %25, label %.lr.ph, label %.critedge

.lr.ph:                                           ; preds = %4, %31
  %26 = load ptr, ptr %9, align 8, !tbaa !19
  %27 = getelementptr inbounds nuw i8, ptr %26, i64 24
  %28 = load ptr, ptr %27, align 8
  %29 = call noundef ptr %28(ptr noundef nonnull align 8 dereferenceable(8) %9)
  %30 = call noundef zeroext i1 %3(ptr noundef %2, ptr noundef %29)
  br i1 %30, label %31, label %.critedge

31:                                               ; preds = %.lr.ph
  %32 = load ptr, ptr %9, align 8, !tbaa !19
  %33 = getelementptr inbounds nuw i8, ptr %32, i64 32
  %34 = load ptr, ptr %33, align 8
  call void %34(ptr noundef nonnull align 8 dereferenceable(8) %9)
  %35 = load ptr, ptr %9, align 8, !tbaa !19
  %36 = getelementptr inbounds nuw i8, ptr %35, i64 16
  %37 = load ptr, ptr %36, align 8
  %38 = call noundef zeroext i1 %37(ptr noundef nonnull align 8 dereferenceable(8) %9)
  br i1 %38, label %.lr.ph, label %.critedge, !llvm.loop !740

.critedge:                                        ; preds = %.lr.ph, %31, %4
  ret void
}